target datalayout = "e-m:e-p270:32:32-p271:32:32-p272:64:64-i64:64-i128:128-f80:128-n8:16:32:64-S128"
target triple = "x86_64-pc-linux-gnu"

%struct.pg_conn = type { ptr, ptr, ptr, ptr, ptr, ptr, ptr, ptr, ptr, ptr, ptr, ptr, ptr, ptr, ptr, ptr, ptr, ptr, ptr, ptr, ptr, ptr, ptr, ptr, ptr, ptr, ptr, ptr, ptr, ptr, ptr, ptr, ptr, ptr, ptr, ptr, ptr, ptr, ptr, ptr, ptr, ptr, ptr, i8, ptr, i32, %struct.PGNoticeHooks, ptr, i32, i32, i32, i32, i32, [6 x i8], i8, i8, i32, i8, i8, i32, i8, i32, ptr, ptr, i32, i32, ptr, ptr, ptr, ptr, ptr, i32, %struct.SockAddr, %struct.SockAddr, i32, i32, i8, i8, i8, i8, i8, i8, ptr, i8, i32, [1 x ptr], i8, i8, ptr, ptr, i32, i32, i32, i8, i8, i32, i32, ptr, i8, i64, ptr, i64, ptr, i32, i32, ptr, i32, i8, i32, i32, i32, i32, ptr, %struct.pg_prng_state, ptr, i32, i32, i32, i32, ptr, i32, i32, i32, i32, ptr, i32, ptr, i8, ptr, ptr, ptr, i32, i8, i8, i8, i8, i8, i8, i8, i8, %struct.PQExpBufferData, i32, %struct.PQExpBufferData }
%struct.PGNoticeHooks = type { ptr, ptr, ptr, ptr }
%struct.SockAddr = type { %struct.sockaddr_storage, i32 }
%struct.sockaddr_storage = type { i16, [118 x i8], i64 }
%struct.pg_prng_state = type { i64, i64 }
%struct.PQExpBufferData = type { ptr, i64, i64 }
%struct.pgNotify = type { ptr, i32, ptr, ptr }

; Function Attrs: nounwind uwtable
define internal i32 @getNotify(ptr noundef %0) #0 {
  %2 = alloca i32, align 4
  %3 = alloca ptr, align 8
  %4 = alloca i32, align 4
  %5 = alloca ptr, align 8
  %6 = alloca i32, align 4
  %7 = alloca i32, align 4
  %8 = alloca ptr, align 8
  %9 = alloca i32, align 4
  store ptr %0, ptr %3, align 8
  call void @llvm.lifetime.start.p0(i64 4, ptr %4) #11
  call void @llvm.lifetime.start.p0(i64 8, ptr %5) #11
  call void @llvm.lifetime.start.p0(i64 4, ptr %6) #11
  call void @llvm.lifetime.start.p0(i64 4, ptr %7) #11
  call void @llvm.lifetime.start.p0(i64 8, ptr %8) #11
  %10 = load ptr, ptr %3, align 8
  %11 = call i32 @pqGetInt(ptr noundef %4, i64 noundef 4, ptr noundef %10)
  %12 = icmp ne i32 %11, 0
  br i1 %12, label %13, label %14

13:                                               ; preds = %1
  store i32 -1, ptr %2, align 4
  store i32 1, ptr %9, align 4
  br label %110

14:                                               ; preds = %1
  %15 = load ptr, ptr %3, align 8
  %16 = getelementptr inbounds nuw %struct.pg_conn, ptr %15, i32 0, i32 142
  %17 = load ptr, ptr %3, align 8
  %18 = call i32 @pqGets(ptr noundef %16, ptr noundef %17)
  %19 = icmp ne i32 %18, 0
  br i1 %19, label %20, label %21

20:                                               ; preds = %14
  store i32 -1, ptr %2, align 4
  store i32 1, ptr %9, align 4
  br label %110

21:                                               ; preds = %14
  %22 = load ptr, ptr %3, align 8
  %23 = getelementptr inbounds nuw %struct.pg_conn, ptr %22, i32 0, i32 142
  %24 = getelementptr inbounds nuw %struct.PQExpBufferData, ptr %23, i32 0, i32 0
  %25 = load ptr, ptr %24, align 8
  %26 = call noalias ptr @strdup(ptr noundef %25) #11
  store ptr %26, ptr %5, align 8
  %27 = load ptr, ptr %5, align 8
  %28 = icmp ne ptr %27, null
  br i1 %28, label %30, label %29

29:                                               ; preds = %21
  store i32 -1, ptr %2, align 4
  store i32 1, ptr %9, align 4
  br label %110

30:                                               ; preds = %21
  %31 = load ptr, ptr %3, align 8
  %32 = getelementptr inbounds nuw %struct.pg_conn, ptr %31, i32 0, i32 142
  %33 = load ptr, ptr %3, align 8
  %34 = call i32 @pqGets(ptr noundef %32, ptr noundef %33)
  %35 = icmp ne i32 %34, 0
  br i1 %35, label %36, label %38

36:                                               ; preds = %30
  %37 = load ptr, ptr %5, align 8
  call void @free(ptr noundef %37) #11
  store i32 -1, ptr %2, align 4
  store i32 1, ptr %9, align 4
  br label %110

38:                                               ; preds = %30
  %39 = load ptr, ptr %5, align 8
  %40 = call i64 @strlen(ptr noundef %39) #12
  %41 = trunc i64 %40 to i32
  store i32 %41, ptr %6, align 4
  %42 = load ptr, ptr %3, align 8
  %43 = getelementptr inbounds nuw %struct.pg_conn, ptr %42, i32 0, i32 142
  %44 = getelementptr inbounds nuw %struct.PQExpBufferData, ptr %43, i32 0, i32 0
  %45 = load ptr, ptr %44, align 8
  %46 = call i64 @strlen(ptr noundef %45) #12
  %47 = trunc i64 %46 to i32
  store i32 %47, ptr %7, align 4
  %48 = load i32, ptr %6, align 4
  %49 = sext i32 %48 to i64
  %50 = add i64 32, %49
  %51 = load i32, ptr %7, align 4
  %52 = sext i32 %51 to i64
  %53 = add i64 %50, %52
  %54 = add i64 %53, 2
  %55 = call noalias ptr @malloc(i64 noundef %54) #13
  store ptr %55, ptr %8, align 8
  %56 = load ptr, ptr %8, align 8
  %57 = icmp ne ptr %56, null
  br i1 %57, label %58, label %108

58:                                               ; preds = %38
  %59 = load ptr, ptr %8, align 8
  %60 = getelementptr inbounds nuw i8, ptr %59, i64 32
  %61 = load ptr, ptr %8, align 8
  %62 = getelementptr inbounds nuw %struct.pgNotify, ptr %61, i32 0, i32 0
  store ptr %60, ptr %62, align 8
  %63 = load ptr, ptr %8, align 8
  %64 = getelementptr inbounds nuw %struct.pgNotify, ptr %63, i32 0, i32 0
  %65 = load ptr, ptr %64, align 8
  %66 = load ptr, ptr %5, align 8
  %67 = call ptr @strcpy(ptr noundef %65, ptr noundef %66) #11
  %68 = load ptr, ptr %8, align 8
  %69 = getelementptr inbounds nuw %struct.pgNotify, ptr %68, i32 0, i32 0
  %70 = load ptr, ptr %69, align 8
  %71 = load i32, ptr %6, align 4
  %72 = sext i32 %71 to i64
  %73 = getelementptr inbounds i8, ptr %70, i64 %72
  %74 = getelementptr inbounds i8, ptr %73, i64 1
  %75 = load ptr, ptr %8, align 8
  %76 = getelementptr inbounds nuw %struct.pgNotify, ptr %75, i32 0, i32 2
  store ptr %74, ptr %76, align 8
  %77 = load ptr, ptr %8, align 8
  %78 = getelementptr inbounds nuw %struct.pgNotify, ptr %77, i32 0, i32 2
  %79 = load ptr, ptr %78, align 8
  %80 = load ptr, ptr %3, align 8
  %81 = getelementptr inbounds nuw %struct.pg_conn, ptr %80, i32 0, i32 142
  %82 = getelementptr inbounds nuw %struct.PQExpBufferData, ptr %81, i32 0, i32 0
  %83 = load ptr, ptr %82, align 8
  %84 = call ptr @strcpy(ptr noundef %79, ptr noundef %83) #11
  %85 = load i32, ptr %4, align 4
  %86 = load ptr, ptr %8, align 8
  %87 = getelementptr inbounds nuw %struct.pgNotify, ptr %86, i32 0, i32 1
  store i32 %85, ptr %87, align 8
  %88 = load ptr, ptr %8, align 8
  %89 = getelementptr inbounds nuw %struct.pgNotify, ptr %88, i32 0, i32 3
  store ptr null, ptr %89, align 8
  %90 = load ptr, ptr %3, align 8
  %91 = getelementptr inbounds nuw %struct.pg_conn, ptr %90, i32 0, i32 63
  %92 = load ptr, ptr %91, align 8
  %93 = icmp ne ptr %92, null
  br i1 %93, label %94, label %100

94:                                               ; preds = %58
  %95 = load ptr, ptr %8, align 8
  %96 = load ptr, ptr %3, align 8
  %97 = getelementptr inbounds nuw %struct.pg_conn, ptr %96, i32 0, i32 63
  %98 = load ptr, ptr %97, align 8
  %99 = getelementptr inbounds nuw %struct.pgNotify, ptr %98, i32 0, i32 3
  store ptr %95, ptr %99, align 8
  br label %104

100:                                              ; preds = %58
  %101 = load ptr, ptr %8, align 8
  %102 = load ptr, ptr %3, align 8
  %103 = getelementptr inbounds nuw %struct.pg_conn, ptr %102, i32 0, i32 62
  store ptr %101, ptr %103, align 8
  br label %104

104:                                              ; preds = %100, %94
  %105 = load ptr, ptr %8, align 8
  %106 = load ptr, ptr %3, align 8
  %107 = getelementptr inbounds nuw %struct.pg_conn, ptr %106, i32 0, i32 63
  store ptr %105, ptr %107, align 8
  br label %108

108:                                              ; preds = %104, %38
  %109 = load ptr, ptr %5, align 8
  call void @free(ptr noundef %109) #11
  store i32 0, ptr %2, align 4
  store i32 1, ptr %9, align 4
  br label %110

110:                                              ; preds = %108, %36, %29, %20, %13
  call void @llvm.lifetime.end.p0(i64 8, ptr %8) #11
  call void @llvm.lifetime.end.p0(i64 4, ptr %7) #11
  call void @llvm.lifetime.end.p0(i64 4, ptr %6) #11
  call void @llvm.lifetime.end.p0(i64 8, ptr %5) #11
  call void @llvm.lifetime.end.p0(i64 4, ptr %4) #11
  %111 = load i32, ptr %2, align 4
  ret i32 %111
}