; Function Attrs: nounwind uwtable
define internal fastcc range(i32 -1, 1) i32 @getNotify(ptr noundef %0) unnamed_addr #0 {
  %2 = alloca i32, align 4
  call void @llvm.lifetime.start.p0(i64 4, ptr nonnull %2) #16
  %3 = call i32 @pqGetInt(ptr noundef nonnull %2, i64 noundef 4, ptr noundef %0) #16
  %.not = icmp eq i32 %3, 0
  br i1 %.not, label %4, label %38

4:                                                ; preds = %1
  %5 = getelementptr inbounds nuw i8, ptr %0, i64 1152
  %6 = call i32 @pqGets(ptr noundef nonnull %5, ptr noundef %0) #16
  %.not35 = icmp eq i32 %6, 0
  br i1 %.not35, label %7, label %38

7:                                                ; preds = %4
  %8 = load ptr, ptr %5, align 8
  %9 = call noalias ptr @strdup(ptr noundef %8) #16
  %.not36 = icmp eq ptr %9, null
  br i1 %.not36, label %38, label %10

10:                                               ; preds = %7
  %11 = call i32 @pqGets(ptr noundef nonnull %5, ptr noundef nonnull %0) #16
  %.not37 = icmp eq i32 %11, 0
  br i1 %.not37, label %12, label %.sink.split

12:                                               ; preds = %10
  %13 = call i64 @strlen(ptr noundef nonnull dereferenceable(1) %9) #18
  %14 = load ptr, ptr %5, align 8
  %15 = call i64 @strlen(ptr noundef nonnull dereferenceable(1) %14) #18
  %sext = shl i64 %13, 32
  %16 = ashr exact i64 %sext, 32
  %sext38 = shl i64 %15, 32
  %17 = ashr exact i64 %sext38, 32
  %18 = add nsw i64 %16, 34
  %19 = add nsw i64 %18, %17
  %20 = call noalias ptr @malloc(i64 noundef %19) #19
  %.not39 = icmp eq ptr %20, null
  br i1 %.not39, label %.sink.split, label %21

21:                                               ; preds = %12
  %22 = getelementptr inbounds nuw i8, ptr %20, i64 32
  store ptr %22, ptr %20, align 8
  %23 = call ptr @strcpy(ptr noundef nonnull dereferenceable(1) %22, ptr noundef nonnull dereferenceable(1) %9) #16
  %24 = getelementptr inbounds i8, ptr %22, i64 %16
  %25 = getelementptr inbounds nuw i8, ptr %24, i64 1
  %26 = getelementptr inbounds nuw i8, ptr %20, i64 16
  store ptr %25, ptr %26, align 8
  %27 = call ptr @strcpy(ptr noundef nonnull dereferenceable(1) %25, ptr noundef nonnull dereferenceable(1) %14) #16
  %28 = load i32, ptr %2, align 4
  %29 = getelementptr inbounds nuw i8, ptr %20, i64 8
  store i32 %28, ptr %29, align 8
  %30 = getelementptr inbounds nuw i8, ptr %20, i64 24
  store ptr null, ptr %30, align 8
  %31 = getelementptr inbounds nuw i8, ptr %0, i64 464
  %32 = load ptr, ptr %31, align 8
  %.not40 = icmp eq ptr %32, null
  br i1 %.not40, label %35, label %33

33:                                               ; preds = %21
  %34 = getelementptr inbounds nuw i8, ptr %32, i64 24
  store ptr %20, ptr %34, align 8
  br label %37

35:                                               ; preds = %21
  %36 = getelementptr inbounds nuw i8, ptr %0, i64 456
  store ptr %20, ptr %36, align 8
  br label %37

37:                                               ; preds = %35, %33
  store ptr %20, ptr %31, align 8
  br label %.sink.split

.sink.split:                                      ; preds = %12, %37, %10
  %.0.ph = phi i32 [ -1, %10 ], [ 0, %37 ], [ 0, %12 ]
  call void @free(ptr noundef nonnull %9) #16
  br label %38

38:                                               ; preds = %.sink.split, %7, %4, %1
  %.0 = phi i32 [ -1, %1 ], [ -1, %4 ], [ -1, %7 ], [ %.0.ph, %.sink.split ]
  call void @llvm.lifetime.end.p0(i64 4, ptr nonnull %2) #16
  ret i32 %.0
}